Certificate:
    Data:
        Version: 3 (0x2)
        Serial Number:
            fc:d4:79:86:46:da:53:81
        Signature Algorithm: sha256WithRSAEncryption
        Issuer: C=US, ST=New York, O=URMC, CN=apollo-af/emailAddress=apollo-af@urmc.rochester.edu
        Validity
            Not Before: Jun 25 15:51:09 2019 GMT
            Not After : Jun 24 15:51:09 2020 GMT
        Subject: C=US, ST=NY, L=Rochester, O=URMC, OU=apollo, CN=apollo_monitor.dev/emailAddress=apollo-af@urmc.rochester.edu
        Subject Public Key Info:
            Public Key Algorithm: rsaEncryption
                RSA Public-Key: (2048 bit)
                Modulus:
                    00:d3:39:aa:ce:16:f2:c5:1b:91:17:9e:c3:51:84:
                    8f:39:4a:03:8f:19:d4:b7:a1:5d:03:dc:27:4b:34:
                    d6:cb:4d:e6:1c:21:3e:02:f2:57:d4:91:d5:49:02:
                    f1:2e:d6:54:2e:ad:ff:f0:cc:59:46:88:0e:0c:1a:
                    f0:1c:db:dd:6d:a5:5b:3a:38:32:8e:13:f2:4b:c4:
                    cd:6f:92:b1:1e:b4:11:87:d8:c2:49:17:73:1c:cd:
                    75:7c:93:1c:1e:f3:c3:25:90:f0:99:ae:5d:55:60:
                    a2:c9:64:ac:59:12:6b:3f:7c:4d:4a:43:99:90:91:
                    c0:21:da:67:be:c4:ae:67:65:97:05:7d:b3:ac:17:
                    30:0a:97:23:a3:e2:3d:11:de:e4:49:05:30:c4:d5:
                    57:2e:3a:72:29:a7:bb:df:48:98:b4:f2:a8:dd:e4:
                    e5:68:ca:89:0d:b2:02:31:5f:dc:14:56:11:96:2a:
                    1b:54:6a:dd:3f:b3:18:4a:e7:70:3a:73:06:67:72:
                    f7:5f:6c:f8:64:a4:90:05:a9:e0:05:b9:0a:0f:48:
                    08:ee:94:9c:72:51:b9:83:93:99:2d:3f:ac:ee:2e:
                    cc:57:ad:d6:a2:5c:c6:a6:24:d2:d3:05:bb:1d:7c:
                    20:29:a4:b0:ef:04:64:f3:36:bb:f6:7d:db:18:ad:
                    5c:b7
                Exponent: 65537 (0x10001)
        X509v3 extensions:
            X509v3 Basic Constraints: 
                CA:FALSE
            Netscape Comment: 
                OpenSSL Generated Certificate
            X509v3 Subject Key Identifier: 
                DC:30:A4:70:5B:00:CB:E5:0E:10:C4:D5:07:50:7D:94:2D:56:D4:EC
            X509v3 Authority Key Identifier: 
                keyid:08:4C:5F:68:99:15:BF:85:13:7E:A5:93:A4:75:07:44:B1:E4:25:04

    Signature Algorithm: sha256WithRSAEncryption
         8a:98:cc:d2:63:8a:6e:a8:cf:77:49:f2:aa:2c:d3:15:05:d6:
         89:11:9e:e7:9c:0f:f2:37:9e:dd:f8:e0:4d:ef:84:89:66:a5:
         9b:ae:87:53:5a:b9:c0:c1:34:be:59:da:c2:fb:3d:23:eb:a9:
         d3:5b:e3:7a:01:1d:57:ab:f9:08:32:c8:d0:f6:1d:08:f8:fa:
         94:c6:77:ce:83:4c:15:ac:15:9c:fe:5b:45:9d:0b:00:b2:38:
         9f:01:ad:d4:f9:a2:8f:40:21:dd:83:2c:35:7f:3e:4a:54:12:
         40:08:05:25:82:da:55:be:98:0b:c9:bb:39:39:8d:67:b9:f3:
         ba:64:96:d4:31:8e:95:17:f8:be:5c:ba:29:12:e0:5e:19:1a:
         ad:a4:76:5b:57:8b:20:24:b4:66:94:51:43:4f:8c:88:43:79:
         39:fb:a2:6a:23:67:b6:83:d6:a5:4b:45:0e:a2:2b:e7:3f:67:
         17:8c:35:4d:cf:53:d7:59:93:9b:f0:35:b3:6c:e2:a3:c7:dc:
         69:db:97:7f:de:8c:32:83:53:96:ca:92:c1:de:74:35:d2:d5:
         d5:8b:32:d6:c9:a8:7d:e9:8a:cc:3d:5c:60:0d:e8:b4:54:4b:
         59:98:c6:b1:f7:97:5d:6e:c4:f3:ec:ce:cc:30:0d:50:8e:11:
         f5:cf:7c:d5
-----BEGIN CERTIFICATE-----
MIIEBzCCAu+gAwIBAgIJAPzUeYZG2lOBMA0GCSqGSIb3DQEBCwUAMHAxCzAJBgNV
BAYTAlVTMREwDwYDVQQIDAhOZXcgWW9yazENMAsGA1UECgwEVVJNQzESMBAGA1UE
AwwJYXBvbGxvLWFmMSswKQYJKoZIhvcNAQkBFhxhcG9sbG8tYWZAdXJtYy5yb2No
ZXN0ZXIuZWR1MB4XDTE5MDYyNTE1NTEwOVoXDTIwMDYyNDE1NTEwOVowgZgxCzAJ
BgNVBAYTAlVTMQswCQYDVQQIDAJOWTESMBAGA1UEBwwJUm9jaGVzdGVyMQ0wCwYD
VQQKDARVUk1DMQ8wDQYDVQQLDAZhcG9sbG8xGzAZBgNVBAMMEmFwb2xsb19tb25p
dG9yLmRldjErMCkGCSqGSIb3DQEJARYcYXBvbGxvLWFmQHVybWMucm9jaGVzdGVy
LmVkdTCCASIwDQYJKoZIhvcNAQEBBQADggEPADCCAQoCggEBANM5qs4W8sUbkRee
w1GEjzlKA48Z1LehXQPcJ0s01stN5hwhPgLyV9SR1UkC8S7WVC6t//DMWUaIDgwa
8Bzb3W2lWzo4Mo4T8kvEzW+SsR60EYfYwkkXcxzNdXyTHB7zwyWQ8JmuXVVgoslk
rFkSaz98TUpDmZCRwCHaZ77ErmdllwV9s6wXMAqXI6PiPRHe5EkFMMTVVy46cimn
u99ImLTyqN3k5WjKiQ2yAjFf3BRWEZYqG1Rq3T+zGErncDpzBmdy919s+GSkkAWp
4AW5Cg9ICO6UnHJRuYOTmS0/rO4uzFet1qJcxqYk0tMFux18ICmksO8EZPM2u/Z9
2xitXLcCAwEAAaN7MHkwCQYDVR0TBAIwADAsBglghkgBhvhCAQ0EHxYdT3BlblNT
TCBHZW5lcmF0ZWQgQ2VydGlmaWNhdGUwHQYDVR0OBBYEFNwwpHBbAMvlDhDE1QdQ
fZQtVtTsMB8GA1UdIwQYMBaAFAhMX2iZFb+FE36lk6R1B0Sx5CUEMA0GCSqGSIb3
DQEBCwUAA4IBAQCKmMzSY4puqM93SfKqLNMVBdaJEZ7nnA/yN57d+OBN74SJZqWb
rodTWrnAwTS+WdrC+z0j66nTW+N6AR1Xq/kIMsjQ9h0I+PqUxnfOg0wVrBWc/ltF
nQsAsjifAa3U+aKPQCHdgyw1fz5KVBJACAUlgtpVvpgLybs5OY1nufO6ZJbUMY6V
F/i+XLopEuBeGRqtpHZbV4sgJLRmlFFDT4yIQ3k5+6JqI2e2g9alS0UOoivnP2cX
jDVNz1PXWZOb8DWzbOKjx9xp25d/3owyg1OWypLB3nQ10tXVizLWyah96YrMPVxg
Dei0VEtZmMax95ddbsTz7M7MMA1QjhH1z3zV
-----END CERTIFICATE-----
