Certificate:
    Data:
        Version: 3 (0x2)
        Serial Number:
            fc:d4:79:86:46:da:53:7e
    Signature Algorithm: sha256WithRSAEncryption
        Issuer: C=US, ST=New York, O=URMC, CN=apollo-af/emailAddress=apollo-af@urmc.rochester.edu
        Validity
            Not Before: Jun 24 16:09:43 2019 GMT
            Not After : Jun 23 16:09:43 2020 GMT
        Subject: C=US, ST=New York, L=Rochester, O=URMC, OU=apollo, CN=apollo_monitor/emailAddress=apollo-af@urmc.rochester.edu
        Subject Public Key Info:
            Public Key Algorithm: rsaEncryption
                Public-Key: (2048 bit)
                Modulus:
                    00:e5:be:3d:86:7b:dd:8b:8d:fd:9c:65:31:85:89:
                    1f:55:92:4c:4e:62:41:a3:58:e5:24:ea:4b:45:f7:
                    8a:f4:4d:7b:4f:78:28:62:91:87:ff:cd:b5:8a:39:
                    d2:9a:4b:78:d6:e8:80:de:a7:42:a0:f4:b8:18:2a:
                    59:c0:c1:95:29:fa:29:5f:4c:5f:8d:00:56:e1:97:
                    df:21:a5:9e:33:7a:ea:2e:83:2b:fe:a2:90:e9:12:
                    e8:e6:e5:6f:03:c4:cc:64:ec:e1:b5:af:48:c9:fa:
                    e2:18:20:15:c4:2e:60:0d:02:98:24:9d:d9:ec:56:
                    4d:07:4a:5a:22:f8:59:e7:39:ed:86:1f:b2:62:09:
                    01:4e:50:87:15:71:30:84:6d:88:2b:a1:b3:b3:96:
                    22:e6:84:74:fa:6c:d4:e4:3c:12:42:fe:a5:bb:a7:
                    73:6c:77:29:0f:f9:72:90:1d:01:5b:d4:58:c0:ff:
                    30:1f:b4:8e:c3:bf:b2:db:c1:ea:a1:11:09:c2:cc:
                    4c:f9:0a:ce:cb:cb:ee:55:ea:e1:4c:12:04:d0:03:
                    ed:73:f3:f6:3b:d5:6e:ac:1a:03:06:5a:11:d4:89:
                    cb:b7:9f:ab:79:1e:15:ad:c5:7e:19:4c:24:7e:b5:
                    b7:96:7d:6e:da:12:10:7e:63:a0:1d:5e:74:d5:56:
                    0a:f3
                Exponent: 65537 (0x10001)
        X509v3 extensions:
            X509v3 Basic Constraints: 
                CA:FALSE
            Netscape Comment: 
                OpenSSL Generated Certificate
            X509v3 Subject Key Identifier: 
                94:96:23:DD:BA:0D:E8:5C:6C:29:2A:E9:E0:38:C2:FF:AC:B7:48:8A
            X509v3 Authority Key Identifier: 
                keyid:08:4C:5F:68:99:15:BF:85:13:7E:A5:93:A4:75:07:44:B1:E4:25:04

    Signature Algorithm: sha256WithRSAEncryption
         98:20:76:82:bc:d2:fe:e6:da:4f:5e:a1:da:c7:a5:db:e7:db:
         2e:58:62:a8:21:45:bf:6d:de:43:c0:b3:b7:f4:8e:2e:a2:d4:
         19:b8:8c:31:e9:8a:f6:cb:57:f4:97:0e:0f:6d:88:3f:20:9e:
         b2:e5:e0:de:da:86:6f:d5:44:fd:3e:09:09:39:2e:15:bf:63:
         09:2c:7c:79:44:f3:5a:4a:08:f7:b8:fd:4f:ae:a6:72:b4:2a:
         0d:ff:33:a6:79:c1:bc:06:29:f1:ed:59:9a:3e:10:a6:2c:de:
         a2:39:36:95:27:50:26:43:27:96:a3:a7:ca:9a:17:ce:b1:2b:
         3e:bf:17:90:71:6f:de:28:b5:ee:31:5d:ef:86:5c:a9:9f:a7:
         19:8b:2c:45:ba:43:77:6d:81:af:9d:ea:ad:67:85:a1:bb:38:
         d6:9d:9d:db:df:5f:35:d1:8d:ac:ad:fa:08:ff:99:7f:c8:6c:
         a6:40:9d:8b:df:e5:61:88:80:56:10:bf:09:5a:01:5b:ff:3e:
         8f:07:2e:14:8c:7d:6e:1f:d2:1e:7c:1c:d1:03:26:89:5a:a1:
         67:c2:4d:f9:54:5a:53:32:a9:bb:b6:e6:f8:61:5c:71:ac:47:
         0c:20:72:78:69:c5:0d:92:f6:8c:43:00:a3:58:a2:11:ae:ab:
         6c:0d:79:eb
-----BEGIN CERTIFICATE-----
MIIECTCCAvGgAwIBAgIJAPzUeYZG2lN+MA0GCSqGSIb3DQEBCwUAMHAxCzAJBgNV
BAYTAlVTMREwDwYDVQQIDAhOZXcgWW9yazENMAsGA1UECgwEVVJNQzESMBAGA1UE
AwwJYXBvbGxvLWFmMSswKQYJKoZIhvcNAQkBFhxhcG9sbG8tYWZAdXJtYy5yb2No
ZXN0ZXIuZWR1MB4XDTE5MDYyNDE2MDk0M1oXDTIwMDYyMzE2MDk0M1owgZoxCzAJ
BgNVBAYTAlVTMREwDwYDVQQIDAhOZXcgWW9yazESMBAGA1UEBwwJUm9jaGVzdGVy
MQ0wCwYDVQQKDARVUk1DMQ8wDQYDVQQLDAZhcG9sbG8xFzAVBgNVBAMMDmFwb2xs
b19tb25pdG9yMSswKQYJKoZIhvcNAQkBFhxhcG9sbG8tYWZAdXJtYy5yb2NoZXN0
ZXIuZWR1MIIBIjANBgkqhkiG9w0BAQEFAAOCAQ8AMIIBCgKCAQEA5b49hnvdi439
nGUxhYkfVZJMTmJBo1jlJOpLRfeK9E17T3goYpGH/821ijnSmkt41uiA3qdCoPS4
GCpZwMGVKfopX0xfjQBW4ZffIaWeM3rqLoMr/qKQ6RLo5uVvA8TMZOzhta9Iyfri
GCAVxC5gDQKYJJ3Z7FZNB0paIvhZ5znthh+yYgkBTlCHFXEwhG2IK6Gzs5Yi5oR0
+mzU5DwSQv6lu6dzbHcpD/lykB0BW9RYwP8wH7SOw7+y28HqoREJwsxM+QrOy8vu
VerhTBIE0APtc/P2O9VurBoDBloR1InLt5+reR4VrcV+GUwkfrW3ln1u2hIQfmOg
HV501VYK8wIDAQABo3sweTAJBgNVHRMEAjAAMCwGCWCGSAGG+EIBDQQfFh1PcGVu
U1NMIEdlbmVyYXRlZCBDZXJ0aWZpY2F0ZTAdBgNVHQ4EFgQUlJYj3boN6FxsKSrp
4DjC/6y3SIowHwYDVR0jBBgwFoAUCExfaJkVv4UTfqWTpHUHRLHkJQQwDQYJKoZI
hvcNAQELBQADggEBAJggdoK80v7m2k9eodrHpdvn2y5YYqghRb9t3kPAs7f0ji6i
1Bm4jDHpivbLV/SXDg9tiD8gnrLl4N7ahm/VRP0+CQk5LhW/YwksfHlE81pKCPe4
/U+upnK0Kg3/M6Z5wbwGKfHtWZo+EKYs3qI5NpUnUCZDJ5ajp8qaF86xKz6/F5Bx
b94ote4xXe+GXKmfpxmLLEW6Q3dtga+d6q1nhaG7ONadndvfXzXRjayt+gj/mX/I
bKZAnYvf5WGIgFYQvwlaAVv/Po8HLhSMfW4f0h58HNEDJolaoWfCTflUWlMyqbu2
5vhhXHGsRwwgcnhpxQ2S9oxDAKNYohGuq2wNees=
-----END CERTIFICATE-----
