Certificate:
    Data:
        Version: 3 (0x2)
        Serial Number:
            fc:d4:79:86:46:da:53:7c
    Signature Algorithm: sha256WithRSAEncryption
        Issuer: C=US, ST=New York, O=URMC, CN=apollo-af/emailAddress=apollo-af@urmc.rochester.edu
        Validity
            Not Before: Jun 18 19:23:14 2019 GMT
            Not After : Jun 17 19:23:14 2022 GMT
        Subject: C=US, ST=New York, O=URMC, CN=apollo-af/emailAddress=apollo-af@urmc.rochester.edu
        Subject Public Key Info:
            Public Key Algorithm: rsaEncryption
                Public-Key: (2048 bit)
                Modulus:
                    00:db:a5:05:a0:3d:a1:2b:5b:77:50:20:be:df:67:
                    e3:c9:60:87:53:17:66:81:8b:ab:27:94:25:04:05:
                    ba:29:a1:0c:46:47:2a:c6:fc:d2:25:24:58:97:5a:
                    b0:c5:32:39:df:39:e1:84:83:0b:0a:ba:ec:cf:e3:
                    5f:9d:e7:5a:8e:18:c8:f0:8e:19:e3:e8:52:4b:90:
                    e2:66:fb:75:22:ee:77:f3:18:ed:3c:81:97:33:a1:
                    31:bc:69:86:30:d5:68:de:ea:a8:e4:19:0d:76:1c:
                    96:2d:b8:c3:95:00:c7:c5:04:ab:91:ee:31:4e:18:
                    29:a1:19:75:7e:14:4f:53:23:30:ee:a7:7a:a8:2d:
                    c3:20:85:68:21:09:01:0a:e7:5d:a0:bc:50:dc:37:
                    e5:69:49:eb:a2:22:9f:47:13:4b:3d:72:7d:7f:ea:
                    b5:62:a4:10:c5:cc:29:52:d8:2f:7f:bb:3a:97:0a:
                    f7:81:b0:b2:40:34:4b:b1:bd:bd:df:1b:7c:0f:fe:
                    a6:fd:a8:c1:0f:e7:e6:7c:3a:ee:cc:5a:5b:79:e8:
                    a1:1a:dc:65:94:f4:89:91:15:17:86:8b:19:e8:eb:
                    04:88:03:6b:4c:9b:f9:db:3e:9c:b1:03:4c:6e:de:
                    0b:f4:60:e5:7a:2e:54:d1:50:09:1d:76:1c:08:0a:
                    9d:11
                Exponent: 65537 (0x10001)
        X509v3 extensions:
            X509v3 Subject Key Identifier: 
                08:4C:5F:68:99:15:BF:85:13:7E:A5:93:A4:75:07:44:B1:E4:25:04
            X509v3 Authority Key Identifier: 
                keyid:08:4C:5F:68:99:15:BF:85:13:7E:A5:93:A4:75:07:44:B1:E4:25:04

            X509v3 Basic Constraints: critical
                CA:TRUE
    Signature Algorithm: sha256WithRSAEncryption
         4b:1c:26:d5:e2:82:cf:fd:7e:31:91:13:1c:8d:f0:4a:ca:82:
         12:9c:51:0a:7f:cd:b1:8d:e1:92:17:63:bb:65:d9:8a:fd:9a:
         2c:ff:95:a7:dc:8e:10:2d:a9:1c:34:99:1a:72:99:72:48:a8:
         15:a3:a9:d1:96:e2:7b:06:f6:8a:c6:02:60:b5:f1:d3:30:58:
         0d:91:f6:a4:09:6c:7f:2e:60:03:b0:a6:e9:74:1e:38:c8:04:
         70:a5:ff:53:36:ed:48:7f:58:51:7c:dd:86:50:4e:b8:a2:21:
         b6:61:a0:74:24:74:97:84:ca:44:7c:b8:32:6e:b2:4b:3e:e3:
         8c:16:51:f5:f5:68:67:54:17:c8:30:bc:bc:3b:49:8a:b4:80:
         d6:f6:7d:14:5c:5b:f5:0a:20:67:4a:e7:8a:fc:ad:71:0f:85:
         47:2e:bd:49:ee:14:b0:33:ea:66:4e:dd:2c:d1:71:a1:3f:79:
         8a:dc:08:33:2f:c1:be:53:ca:d3:ad:c2:b9:b5:fc:7f:7b:d4:
         d2:b7:b9:16:8d:fa:c8:e4:bf:36:1d:13:f3:7a:b9:84:32:22:
         c7:8f:30:c3:ed:70:c2:53:72:3a:e6:66:0a:9c:2f:17:0b:4f:
         f1:bd:49:2b:4e:4c:2d:73:3b:b1:65:15:83:d7:8a:5f:14:eb:
         f3:94:e3:83
-----BEGIN CERTIFICATE-----
MIIDtjCCAp6gAwIBAgIJAPzUeYZG2lN8MA0GCSqGSIb3DQEBCwUAMHAxCzAJBgNV
BAYTAlVTMREwDwYDVQQIDAhOZXcgWW9yazENMAsGA1UECgwEVVJNQzESMBAGA1UE
AwwJYXBvbGxvLWFmMSswKQYJKoZIhvcNAQkBFhxhcG9sbG8tYWZAdXJtYy5yb2No
ZXN0ZXIuZWR1MB4XDTE5MDYxODE5MjMxNFoXDTIyMDYxNzE5MjMxNFowcDELMAkG
A1UEBhMCVVMxETAPBgNVBAgMCE5ldyBZb3JrMQ0wCwYDVQQKDARVUk1DMRIwEAYD
VQQDDAlhcG9sbG8tYWYxKzApBgkqhkiG9w0BCQEWHGFwb2xsby1hZkB1cm1jLnJv
Y2hlc3Rlci5lZHUwggEiMA0GCSqGSIb3DQEBAQUAA4IBDwAwggEKAoIBAQDbpQWg
PaErW3dQIL7fZ+PJYIdTF2aBi6snlCUEBbopoQxGRyrG/NIlJFiXWrDFMjnfOeGE
gwsKuuzP41+d51qOGMjwjhnj6FJLkOJm+3Ui7nfzGO08gZczoTG8aYYw1Wje6qjk
GQ12HJYtuMOVAMfFBKuR7jFOGCmhGXV+FE9TIzDup3qoLcMghWghCQEK512gvFDc
N+VpSeuiIp9HE0s9cn1/6rVipBDFzClS2C9/uzqXCveBsLJANEuxvb3fG3wP/qb9
qMEP5+Z8Ou7MWlt56KEa3GWU9ImRFReGixno6wSIA2tMm/nbPpyxA0xu3gv0YOV6
LlTRUAkddhwICp0RAgMBAAGjUzBRMB0GA1UdDgQWBBQITF9omRW/hRN+pZOkdQdE
seQlBDAfBgNVHSMEGDAWgBQITF9omRW/hRN+pZOkdQdEseQlBDAPBgNVHRMBAf8E
BTADAQH/MA0GCSqGSIb3DQEBCwUAA4IBAQBLHCbV4oLP/X4xkRMcjfBKyoISnFEK
f82xjeGSF2O7ZdmK/Zos/5Wn3I4QLakcNJkacplySKgVo6nRluJ7BvaKxgJgtfHT
MFgNkfakCWx/LmADsKbpdB44yARwpf9TNu1If1hRfN2GUE64oiG2YaB0JHSXhMpE
fLgybrJLPuOMFlH19WhnVBfIMLy8O0mKtIDW9n0UXFv1CiBnSueK/K1xD4VHLr1J
7hSwM+pmTt0s0XGhP3mK3AgzL8G+U8rTrcK5tfx/e9TSt7kWjfrI5L82HRPzermE
MiLHjzDD7XDCU3I65mYKnC8XC0/xvUkrTkwtczuxZRWD14pfFOvzlOOD
-----END CERTIFICATE-----
